; Function Attrs: inlinehint mustprogress optsize uwtable
define internal noundef ptr @"_ZZN8nanobind6detail11func_createILb0ELb1EZL32nanobind_init_test_intrusive_extRNS_7module_EE3$_3iJNS_3refI4TestEEEJLm0EEJNS_5scopeENS_4nameEEEEP7_objectOT1_PFT2_DpT3_ESt16integer_sequenceImJXspT4_EEEDpRKT5_ENUlPvPSB_PhNS_9rv_policyEPNS0_12cleanup_listEE_8__invokeESP_SQ_SR_SS_SU_"(ptr readnone captures(none) %0, ptr noundef readonly captures(none) %1, ptr noundef readonly captures(none) %2, i32 %3, ptr noundef %4) #10 align 2 personality ptr @__gxx_personality_v0 {
  %6 = alloca %"struct.nanobind::detail::tuple.56", align 8
  call void @llvm.lifetime.start.p0(i64 8, ptr nonnull %6) #17
  store ptr null, ptr %6, align 8, !tbaa !52
  %7 = load ptr, ptr %1, align 8, !tbaa !44
  %8 = load i8, ptr %2, align 1, !tbaa !39
  %9 = call noundef zeroext i1 @_ZN8nanobind6detail11type_casterINS_3refI4TestEEiE11from_pythonENS_6handleEhPNS0_12cleanup_listE(ptr noundef nonnull align 8 dereferenceable(8) %6, ptr %7, i8 noundef zeroext %8, ptr noundef %4) #18
  br i1 %9, label %10, label %"_ZZN8nanobind6detail11func_createILb0ELb1EZL32nanobind_init_test_intrusive_extRNS_7module_EE3$_3iJNS_3refI4TestEEEJLm0EEJNS_5scopeENS_4nameEEEEP7_objectOT1_PFT2_DpT3_ESt16integer_sequenceImJXspT4_EEEDpRKT5_ENKUlPvPSB_PhNS_9rv_policyEPNS0_12cleanup_listEE_clESP_SQ_SR_SS_SU_.exit"

10:                                               ; preds = %5
  %11 = load ptr, ptr %6, align 8, !tbaa !52
  store ptr null, ptr %6, align 8, !tbaa !52
  %12 = load ptr, ptr %11, align 8, !tbaa !45
  %13 = getelementptr inbounds nuw i8, ptr %12, i64 16
  %14 = load ptr, ptr %13, align 8
  %15 = invoke noundef i32 %14(ptr noundef nonnull align 8 dereferenceable(16) %11, i32 noundef 2) #16
          to label %"_ZZL32nanobind_init_test_intrusive_extRN8nanobind7module_EENK3$_3clENS_3refI4TestEE.exit" unwind label %27

"_ZZL32nanobind_init_test_intrusive_extRN8nanobind7module_EENK3$_3clENS_3refI4TestEE.exit": ; preds = %10
  %16 = sext i32 %15 to i64
  %17 = invoke ptr @PyLong_FromLong(i64 noundef %16) #16
          to label %_ZN8nanobind6detail11type_casterIiiE8from_cppEiNS_9rv_policyEPNS0_12cleanup_listE.exit.i unwind label %18

18:                                               ; preds = %"_ZZL32nanobind_init_test_intrusive_extRN8nanobind7module_EENK3$_3clENS_3refI4TestEE.exit"
  %19 = landingpad { ptr, i32 }
          catch ptr null
  %20 = extractvalue { ptr, i32 } %19, 0
  call void @__clang_call_terminate(ptr %20) #19
  unreachable

_ZN8nanobind6detail11type_casterIiiE8from_cppEiNS_9rv_policyEPNS0_12cleanup_listE.exit.i: ; preds = %"_ZZL32nanobind_init_test_intrusive_extRN8nanobind7module_EENK3$_3clENS_3refI4TestEE.exit"
  %21 = getelementptr inbounds nuw i8, ptr %11, i64 8
  %22 = call noundef zeroext i1 @_ZNK8nanobind17intrusive_counter7dec_refEv(ptr noundef nonnull align 8 dereferenceable(8) %21) #18
  br i1 %22, label %23, label %"_ZZN8nanobind6detail11func_createILb0ELb1EZL32nanobind_init_test_intrusive_extRNS_7module_EE3$_3iJNS_3refI4TestEEEJLm0EEJNS_5scopeENS_4nameEEEEP7_objectOT1_PFT2_DpT3_ESt16integer_sequenceImJXspT4_EEEDpRKT5_ENKUlPvPSB_PhNS_9rv_policyEPNS0_12cleanup_listEE_clESP_SQ_SR_SS_SU_.exit"

23:                                               ; preds = %_ZN8nanobind6detail11type_casterIiiE8from_cppEiNS_9rv_policyEPNS0_12cleanup_listE.exit.i
  %24 = load ptr, ptr %11, align 8, !tbaa !45
  %25 = getelementptr inbounds nuw i8, ptr %24, i64 8
  %26 = load ptr, ptr %25, align 8
  call void %26(ptr noundef nonnull align 8 dereferenceable(16) %11) #18
  br label %"_ZZN8nanobind6detail11func_createILb0ELb1EZL32nanobind_init_test_intrusive_extRNS_7module_EE3$_3iJNS_3refI4TestEEEJLm0EEJNS_5scopeENS_4nameEEEEP7_objectOT1_PFT2_DpT3_ESt16integer_sequenceImJXspT4_EEEDpRKT5_ENKUlPvPSB_PhNS_9rv_policyEPNS0_12cleanup_listEE_clESP_SQ_SR_SS_SU_.exit"

27:                                               ; preds = %10
  %28 = landingpad { ptr, i32 }
          cleanup
  %29 = getelementptr inbounds nuw i8, ptr %11, i64 8
  %30 = call noundef zeroext i1 @_ZNK8nanobind17intrusive_counter7dec_refEv(ptr noundef nonnull align 8 dereferenceable(8) %29) #18
  br i1 %30, label %31, label %_ZN8nanobind3refI4TestED2Ev.exit5

31:                                               ; preds = %27
  %32 = load ptr, ptr %11, align 8, !tbaa !45
  %33 = getelementptr inbounds nuw i8, ptr %32, i64 8
  %34 = load ptr, ptr %33, align 8
  call void %34(ptr noundef nonnull align 8 dereferenceable(16) %11) #18
  br label %_ZN8nanobind3refI4TestED2Ev.exit5

_ZN8nanobind3refI4TestED2Ev.exit5:                ; preds = %27, %31
  %35 = load ptr, ptr %6, align 8, !tbaa !52
  %.not.i.i.i.i = icmp eq ptr %35, null
  br i1 %.not.i.i.i.i, label %_ZN8nanobind6detail5tupleIJNS0_11type_casterINS_3refI4TestEEiEEEED2Ev.exit, label %36

36:                                               ; preds = %_ZN8nanobind3refI4TestED2Ev.exit5
  %37 = getelementptr inbounds nuw i8, ptr %35, i64 8
  %38 = call noundef zeroext i1 @_ZNK8nanobind17intrusive_counter7dec_refEv(ptr noundef nonnull align 8 dereferenceable(8) %37) #18
  br i1 %38, label %39, label %_ZN8nanobind6detail5tupleIJNS0_11type_casterINS_3refI4TestEEiEEEED2Ev.exit

39:                                               ; preds = %36
  %40 = load ptr, ptr %35, align 8, !tbaa !45
  %41 = getelementptr inbounds nuw i8, ptr %40, i64 8
  %42 = load ptr, ptr %41, align 8
  call void %42(ptr noundef nonnull align 8 dereferenceable(16) %35) #18
  br label %_ZN8nanobind6detail5tupleIJNS0_11type_casterINS_3refI4TestEEiEEEED2Ev.exit

_ZN8nanobind6detail5tupleIJNS0_11type_casterINS_3refI4TestEEiEEEED2Ev.exit: ; preds = %_ZN8nanobind3refI4TestED2Ev.exit5, %36, %39
  call void @llvm.lifetime.end.p0(i64 8, ptr nonnull %6) #17
  resume { ptr, i32 } %28

"_ZZN8nanobind6detail11func_createILb0ELb1EZL32nanobind_init_test_intrusive_extRNS_7module_EE3$_3iJNS_3refI4TestEEEJLm0EEJNS_5scopeENS_4nameEEEEP7_objectOT1_PFT2_DpT3_ESt16integer_sequenceImJXspT4_EEEDpRKT5_ENKUlPvPSB_PhNS_9rv_policyEPNS0_12cleanup_listEE_clESP_SQ_SR_SS_SU_.exit": ; preds = %23, %_ZN8nanobind6detail11type_casterIiiE8from_cppEiNS_9rv_policyEPNS0_12cleanup_listE.exit.i, %5
  %.0.i = phi ptr [ inttoptr (i64 1 to ptr), %5 ], [ %17, %_ZN8nanobind6detail11type_casterIiiE8from_cppEiNS_9rv_policyEPNS0_12cleanup_listE.exit.i ], [ %17, %23 ]
  %43 = load ptr, ptr %6, align 8, !tbaa !52
  %.not.i.i.i.i6 = icmp eq ptr %43, null
  br i1 %.not.i.i.i.i6, label %_ZN8nanobind6detail5tupleIJNS0_11type_casterINS_3refI4TestEEiEEEED2Ev.exit7, label %44

44:                                               ; preds = %"_ZZN8nanobind6detail11func_createILb0ELb1EZL32nanobind_init_test_intrusive_extRNS_7module_EE3$_3iJNS_3refI4TestEEEJLm0EEJNS_5scopeENS_4nameEEEEP7_objectOT1_PFT2_DpT3_ESt16integer_sequenceImJXspT4_EEEDpRKT5_ENKUlPvPSB_PhNS_9rv_policyEPNS0_12cleanup_listEE_clESP_SQ_SR_SS_SU_.exit"
  %45 = getelementptr inbounds nuw i8, ptr %43, i64 8
  %46 = call noundef zeroext i1 @_ZNK8nanobind17intrusive_counter7dec_refEv(ptr noundef nonnull align 8 dereferenceable(8) %45) #18
  br i1 %46, label %47, label %_ZN8nanobind6detail5tupleIJNS0_11type_casterINS_3refI4TestEEiEEEED2Ev.exit7

47:                                               ; preds = %44
  %48 = load ptr, ptr %43, align 8, !tbaa !45
  %49 = getelementptr inbounds nuw i8, ptr %48, i64 8
  %50 = load ptr, ptr %49, align 8
  call void %50(ptr noundef nonnull align 8 dereferenceable(16) %43) #18
  br label %_ZN8nanobind6detail5tupleIJNS0_11type_casterINS_3refI4TestEEiEEEED2Ev.exit7

_ZN8nanobind6detail5tupleIJNS0_11type_casterINS_3refI4TestEEiEEEED2Ev.exit7: ; preds = %"_ZZN8nanobind6detail11func_createILb0ELb1EZL32nanobind_init_test_intrusive_extRNS_7module_EE3$_3iJNS_3refI4TestEEEJLm0EEJNS_5scopeENS_4nameEEEEP7_objectOT1_PFT2_DpT3_ESt16integer_sequenceImJXspT4_EEEDpRKT5_ENKUlPvPSB_PhNS_9rv_policyEPNS0_12cleanup_listEE_clESP_SQ_SR_SS_SU_.exit", %44, %47
  call void @llvm.lifetime.end.p0(i64 8, ptr nonnull %6) #17
  ret ptr %.0.i
}